; ModuleID = '37/466.c'
source_filename = "37/466.c"
target datalayout = "e-m:e-p270:32:32-p271:32:32-p272:64:64-i64:64-f80:128-n8:16:32:64-S128"
target triple = "x86_64-pc-linux-gnu"

@.str = private unnamed_addr constant [3 x i8] c"%d\00", align 1
@.str.1 = private unnamed_addr constant [4 x i8] c"%c\0A\00", align 1
@.str.2 = private unnamed_addr constant [4 x i8] c"no\0A\00", align 1

; Function Attrs: noinline nounwind uwtable
define dso_local void @main() #0 {
  %1 = alloca [26 x i32], align 16
  %2 = alloca i32, align 4
  %3 = alloca i32, align 4
  %4 = alloca i32, align 4
  %5 = alloca i32, align 4
  %6 = alloca i32, align 4
  %7 = alloca [200 x i8], align 16
  %8 = alloca [2 x i8], align 1
  store i32 0, i32* %6, align 4
  %9 = call i32 (i8*, ...) @__isoc99_scanf(i8* getelementptr inbounds ([3 x i8], [3 x i8]* @.str, i64 0, i64 0), i32* %3)
  %10 = getelementptr inbounds [2 x i8], [2 x i8]* %8, i64 0, i64 0
  %11 = call i32 (i8*, ...) bitcast (i32 (...)* @gets to i32 (i8*, ...)*)(i8* %10)
  store i32 0, i32* %2, align 4
  br label %12

12:                                               ; preds = %117, %0
  %13 = load i32, i32* %2, align 4
  %14 = load i32, i32* %3, align 4
  %15 = icmp slt i32 %13, %14
  br i1 %15, label %16, label %120

16:                                               ; preds = %12
  %17 = getelementptr inbounds [200 x i8], [200 x i8]* %7, i64 0, i64 0
  %18 = call i32 (i8*, ...) bitcast (i32 (...)* @gets to i32 (i8*, ...)*)(i8* %17)
  store i32 0, i32* %5, align 4
  br label %19

19:                                               ; preds = %26, %16
  %20 = load i32, i32* %5, align 4
  %21 = icmp slt i32 %20, 26
  br i1 %21, label %22, label %29

22:                                               ; preds = %19
  %23 = load i32, i32* %5, align 4
  %24 = sext i32 %23 to i64
  %25 = getelementptr inbounds [26 x i32], [26 x i32]* %1, i64 0, i64 %24
  store i32 0, i32* %25, align 4
  br label %26

26:                                               ; preds = %22
  %27 = load i32, i32* %5, align 4
  %28 = add nsw i32 %27, 1
  store i32 %28, i32* %5, align 4
  br label %19

29:                                               ; preds = %19
  store i32 0, i32* %4, align 4
  br label %30

30:                                               ; preds = %62, %29
  %31 = load i32, i32* %4, align 4
  %32 = sext i32 %31 to i64
  %33 = getelementptr inbounds [200 x i8], [200 x i8]* %7, i64 0, i64 0
  %34 = call i64 @strlen(i8* %33) #3
  %35 = icmp ult i64 %32, %34
  br i1 %35, label %36, label %65

36:                                               ; preds = %30
  %37 = load i32, i32* %4, align 4
  %38 = sext i32 %37 to i64
  %39 = getelementptr inbounds [200 x i8], [200 x i8]* %7, i64 0, i64 %38
  %40 = load i8, i8* %39, align 1
  %41 = sext i8 %40 to i32
  %42 = icmp sge i32 %41, 97
  br i1 %42, label %43, label %61

43:                                               ; preds = %36
  %44 = load i32, i32* %4, align 4
  %45 = sext i32 %44 to i64
  %46 = getelementptr inbounds [200 x i8], [200 x i8]* %7, i64 0, i64 %45
  %47 = load i8, i8* %46, align 1
  %48 = sext i8 %47 to i32
  %49 = icmp sle i32 %48, 122
  br i1 %49, label %50, label %61

50:                                               ; preds = %43
  %51 = load i32, i32* %4, align 4
  %52 = sext i32 %51 to i64
  %53 = getelementptr inbounds [200 x i8], [200 x i8]* %7, i64 0, i64 %52
  %54 = load i8, i8* %53, align 1
  %55 = sext i8 %54 to i32
  %56 = sub nsw i32 %55, 97
  %57 = sext i32 %56 to i64
  %58 = getelementptr inbounds [26 x i32], [26 x i32]* %1, i64 0, i64 %57
  %59 = load i32, i32* %58, align 4
  %60 = add nsw i32 %59, 1
  store i32 %60, i32* %58, align 4
  br label %61

61:                                               ; preds = %50, %43, %36
  br label %62

62:                                               ; preds = %61
  %63 = load i32, i32* %4, align 4
  %64 = add nsw i32 %63, 1
  store i32 %64, i32* %4, align 4
  br label %30

65:                                               ; preds = %30
  store i32 0, i32* %4, align 4
  br label %66

66:                                               ; preds = %91, %65
  %67 = load i32, i32* %4, align 4
  %68 = sext i32 %67 to i64
  %69 = getelementptr inbounds [200 x i8], [200 x i8]* %7, i64 0, i64 0
  %70 = call i64 @strlen(i8* %69) #3
  %71 = icmp ult i64 %68, %70
  br i1 %71, label %72, label %94

72:                                               ; preds = %66
  %73 = load i32, i32* %4, align 4
  %74 = sext i32 %73 to i64
  %75 = getelementptr inbounds [200 x i8], [200 x i8]* %7, i64 0, i64 %74
  %76 = load i8, i8* %75, align 1
  %77 = sext i8 %76 to i32
  %78 = sub nsw i32 %77, 97
  %79 = sext i32 %78 to i64
  %80 = getelementptr inbounds [26 x i32], [26 x i32]* %1, i64 0, i64 %79
  %81 = load i32, i32* %80, align 4
  %82 = icmp eq i32 %81, 1
  br i1 %82, label %83, label %90

83:                                               ; preds = %72
  %84 = load i32, i32* %4, align 4
  %85 = sext i32 %84 to i64
  %86 = getelementptr inbounds [200 x i8], [200 x i8]* %7, i64 0, i64 %85
  %87 = load i8, i8* %86, align 1
  %88 = sext i8 %87 to i32
  %89 = call i32 (i8*, ...) @printf(i8* getelementptr inbounds ([4 x i8], [4 x i8]* @.str.1, i64 0, i64 0), i32 %88)
  br label %94

90:                                               ; preds = %72
  br label %91

91:                                               ; preds = %90
  %92 = load i32, i32* %4, align 4
  %93 = add nsw i32 %92, 1
  store i32 %93, i32* %4, align 4
  br label %66

94:                                               ; preds = %83, %66
  store i32 0, i32* %5, align 4
  br label %95

95:                                               ; preds = %108, %94
  %96 = load i32, i32* %5, align 4
  %97 = icmp slt i32 %96, 26
  br i1 %97, label %98, label %111

98:                                               ; preds = %95
  %99 = load i32, i32* %5, align 4
  %100 = sext i32 %99 to i64
  %101 = getelementptr inbounds [26 x i32], [26 x i32]* %1, i64 0, i64 %100
  %102 = load i32, i32* %101, align 4
  %103 = icmp eq i32 %102, 1
  br i1 %103, label %104, label %107

104:                                              ; preds = %98
  %105 = load i32, i32* %6, align 4
  %106 = add nsw i32 %105, 1
  store i32 %106, i32* %6, align 4
  br label %107

107:                                              ; preds = %104, %98
  br label %108

108:                                              ; preds = %107
  %109 = load i32, i32* %5, align 4
  %110 = add nsw i32 %109, 1
  store i32 %110, i32* %5, align 4
  br label %95

111:                                              ; preds = %95
  %112 = load i32, i32* %6, align 4
  %113 = icmp eq i32 %112, 0
  br i1 %113, label %114, label %116

114:                                              ; preds = %111
  %115 = call i32 (i8*, ...) @printf(i8* getelementptr inbounds ([4 x i8], [4 x i8]* @.str.2, i64 0, i64 0))
  br label %116

116:                                              ; preds = %114, %111
  store i32 0, i32* %6, align 4
  br label %117

117:                                              ; preds = %116
  %118 = load i32, i32* %2, align 4
  %119 = add nsw i32 %118, 1
  store i32 %119, i32* %2, align 4
  br label %12

120:                                              ; preds = %12
  ret void
}

declare dso_local i32 @__isoc99_scanf(i8*, ...) #1

declare dso_local i32 @gets(...) #1

; Function Attrs: nounwind readonly
declare dso_local i64 @strlen(i8*) #2

declare dso_local i32 @printf(i8*, ...) #1


!llvm.module.flags = !{!0}
!llvm.ident = !{!1}

!0 = !{i32 1, !"wchar_size", i32 4}
!1 = !{!"clang version 10.0.0-4ubuntu1 "}
